target datalayout = "e-m:e-p270:32:32-p271:32:32-p272:64:64-i64:64-i128:128-f80:128-n8:16:32:64-S128"
target triple = "x86_64-pc-linux-gnu"

%"class.cv::detail::tracking::ClfOnlineStump" = type { float, float, float, float, float, i32, float, float, float, float, float, i8, i32 }

; Function Attrs: mustprogress nounwind uwtable
define hidden void @_ZN2cv6detail8tracking14ClfOnlineStump4initEv(ptr noundef nonnull align 4 dereferenceable(52) %0) #0 align 2 {
  %2 = alloca ptr, align 8
  store ptr %0, ptr %2, align 8, !tbaa !43
  %3 = load ptr, ptr %2, align 8
  %4 = getelementptr inbounds nuw %"class.cv::detail::tracking::ClfOnlineStump", ptr %3, i32 0, i32 0
  store float 0.000000e+00, ptr %4, align 4, !tbaa !97
  %5 = getelementptr inbounds nuw %"class.cv::detail::tracking::ClfOnlineStump", ptr %3, i32 0, i32 1
  store float 0.000000e+00, ptr %5, align 4, !tbaa !95
  %6 = getelementptr inbounds nuw %"class.cv::detail::tracking::ClfOnlineStump", ptr %3, i32 0, i32 2
  store float 1.000000e+00, ptr %6, align 4, !tbaa !98
  %7 = getelementptr inbounds nuw %"class.cv::detail::tracking::ClfOnlineStump", ptr %3, i32 0, i32 3
  store float 1.000000e+00, ptr %7, align 4, !tbaa !96
  %8 = getelementptr inbounds nuw %"class.cv::detail::tracking::ClfOnlineStump", ptr %3, i32 0, i32 10
  store float 0x3FEB333340000000, ptr %8, align 4, !tbaa !49
  %9 = getelementptr inbounds nuw %"class.cv::detail::tracking::ClfOnlineStump", ptr %3, i32 0, i32 11
  store i8 0, ptr %9, align 4, !tbaa !92
  ret void
}