; Function Attrs: mustprogress nofree norecurse nosync nounwind willreturn memory(argmem: write) uwtable
define hidden void @_ZN2cv6detail8tracking14ClfOnlineStump4initEv(ptr noundef nonnull writeonly align 4 captures(none) dereferenceable(52) initializes((0, 16), (40, 45)) %0) local_unnamed_addr #0 align 2 {
  store float 0.000000e+00, ptr %0, align 4, !tbaa !41
  %2 = getelementptr inbounds nuw i8, ptr %0, i64 4
  store float 0.000000e+00, ptr %2, align 4, !tbaa !42
  %3 = getelementptr inbounds nuw i8, ptr %0, i64 8
  store float 1.000000e+00, ptr %3, align 4, !tbaa !43
  %4 = getelementptr inbounds nuw i8, ptr %0, i64 12
  store float 1.000000e+00, ptr %4, align 4, !tbaa !44
  %5 = getelementptr inbounds nuw i8, ptr %0, i64 40
  store float 0x3FEB333340000000, ptr %5, align 4, !tbaa !46
  %6 = getelementptr inbounds nuw i8, ptr %0, i64 44
  store i8 0, ptr %6, align 4, !tbaa !45
  ret void
}